---
triple:          'arm64-apple-darwin'
binary-path:     blur_opt
relocations:
  - { offset: 0x62C6, size: 0x8, addend: 0x0, symName: __ZStL8__ioinit, symObjAddr: 0x1EF61, symBinAddr: 0x100024440, symSize: 0x0 }
  - { offset: 0x6EC9, size: 0x8, addend: 0x0, symName: _main, symObjAddr: 0x120, symBinAddr: 0x100017CA0, symSize: 0x2E0 }
  - { offset: 0x7445, size: 0x8, addend: 0x0, symName: __ZNSt7__cxx1112basic_stringIcSt11char_traitsIcESaIcEEC1IS3_EEPKcRKS3_.isra.0, symObjAddr: 0x0, symBinAddr: 0x100003FF0, symSize: 0xB4 }
  - { offset: 0x903B, size: 0x8, addend: 0x0, symName: __ZStL8__ioinit, symObjAddr: 0x10E76, symBinAddr: 0x100024441, symSize: 0x0 }
  - { offset: 0x9215, size: 0x8, addend: 0x0, symName: __ZN6Matrix1bEjj, symObjAddr: 0x4E0, symBinAddr: 0x1000045D0, symSize: 0x14 }
  - { offset: 0x9263, size: 0x8, addend: 0x0, symName: __ZN6Matrix1gEjj, symObjAddr: 0x4C0, symBinAddr: 0x1000045B0, symSize: 0x20 }
  - { offset: 0x92B1, size: 0x8, addend: 0x0, symName: __ZN6Matrix1rEjj, symObjAddr: 0x4A0, symBinAddr: 0x100004590, symSize: 0x20 }
  - { offset: 0x92FF, size: 0x8, addend: 0x0, symName: __ZNK6Matrix1bEjj, symObjAddr: 0x480, symBinAddr: 0x100004570, symSize: 0x20 }
  - { offset: 0x934D, size: 0x8, addend: 0x0, symName: __ZNK6Matrix1gEjj, symObjAddr: 0x460, symBinAddr: 0x100004550, symSize: 0x20 }
  - { offset: 0x939B, size: 0x8, addend: 0x0, symName: __ZNK6Matrix1rEjj, symObjAddr: 0x440, symBinAddr: 0x100004530, symSize: 0x20 }
  - { offset: 0x93E9, size: 0x8, addend: 0x0, symName: __ZNK6Matrix5get_BEv, symObjAddr: 0x430, symBinAddr: 0x100004520, symSize: 0x10 }
  - { offset: 0x9417, size: 0x8, addend: 0x0, symName: __ZNK6Matrix5get_GEv, symObjAddr: 0x420, symBinAddr: 0x100004510, symSize: 0x10 }
  - { offset: 0x9445, size: 0x8, addend: 0x0, symName: __ZNK6Matrix5get_REv, symObjAddr: 0x410, symBinAddr: 0x100004500, symSize: 0x10 }
  - { offset: 0x9473, size: 0x8, addend: 0x0, symName: __ZNK6Matrix13get_color_maxEv, symObjAddr: 0x400, symBinAddr: 0x1000044F0, symSize: 0x10 }
  - { offset: 0x94A1, size: 0x8, addend: 0x0, symName: __ZNK6Matrix10get_y_sizeEv, symObjAddr: 0x3F0, symBinAddr: 0x1000044E0, symSize: 0x10 }
  - { offset: 0x94CF, size: 0x8, addend: 0x0, symName: __ZNK6Matrix10get_x_sizeEv, symObjAddr: 0x3E0, symBinAddr: 0x1000044D0, symSize: 0x10 }
  - { offset: 0x9521, size: 0x8, addend: 0x0, symName: __ZN6MatrixD1Ev, symObjAddr: 0x390, symBinAddr: 0x100004480, symSize: 0x50 }
  - { offset: 0x954B, size: 0x8, addend: 0x0, symName: __ZN6MatrixaSES_, symObjAddr: 0x260, symBinAddr: 0x100004350, symSize: 0xE0 }
  - { offset: 0x95F2, size: 0x8, addend: 0x0, symName: __ZN6MatrixC1ERKS_, symObjAddr: 0x1C0, symBinAddr: 0x1000042B0, symSize: 0xA0 }
  - { offset: 0x966F, size: 0x8, addend: 0x0, symName: __ZN6MatrixC1Ej, symObjAddr: 0xC0, symBinAddr: 0x1000041B0, symSize: 0x60 }
  - { offset: 0x96BD, size: 0x8, addend: 0x0, symName: __ZN6MatrixC1Ev, symObjAddr: 0x50, symBinAddr: 0x100004140, symSize: 0x10 }
  - { offset: 0x96DD, size: 0x8, addend: 0x0, symName: __ZN6MatrixC1Ev, symObjAddr: 0x50, symBinAddr: 0x100004140, symSize: 0x10 }
  - { offset: 0x97AD, size: 0x8, addend: 0x0, symName: __ZN6MatrixC1EPhS0_S0_jjj, symObjAddr: 0x20, symBinAddr: 0x100004110, symSize: 0x20 }
  - { offset: 0x33949, size: 0x8, addend: 0x0, symName: __ZStL8__ioinit, symObjAddr: 0x249372, symBinAddr: 0x100024442, symSize: 0x0 }
  - { offset: 0x35A32, size: 0x8, addend: 0x0, symName: __ZNSt23_Sp_counted_ptr_inplaceINSt8__detail4_NFAINSt7__cxx1112regex_traitsIcEEEESaIvELN9__gnu_cxx12_Lock_policyE2EE14_M_get_deleterERKSt9type_info, symObjAddr: 0xBB0, symBinAddr: 0x1000051E0, symSize: 0x70 }
  - { offset: 0x35B34, size: 0x8, addend: 0x0, symName: __ZNSt23_Sp_counted_ptr_inplaceINSt8__detail4_NFAINSt7__cxx1112regex_traitsIcEEEESaIvELN9__gnu_cxx12_Lock_policyE2EE10_M_destroyEv, symObjAddr: 0x500, symBinAddr: 0x100004B30, symSize: 0x10 }
  - { offset: 0x35B7A, size: 0x8, addend: 0x0, symName: __ZNSt23_Sp_counted_ptr_inplaceINSt8__detail4_NFAINSt7__cxx1112regex_traitsIcEEEESaIvELN9__gnu_cxx12_Lock_policyE2EE10_M_destroyEv, symObjAddr: 0x500, symBinAddr: 0x100004B30, symSize: 0x10 }
  - { offset: 0x35B9A, size: 0x8, addend: 0x0, symName: __ZNSt23_Sp_counted_ptr_inplaceINSt8__detail4_NFAINSt7__cxx1112regex_traitsIcEEEESaIvELN9__gnu_cxx12_Lock_policyE2EE10_M_destroyEv, symObjAddr: 0x500, symBinAddr: 0x100004B30, symSize: 0x10 }
  - { offset: 0x35BCA, size: 0x8, addend: 0x0, symName: __ZNSt23_Sp_counted_ptr_inplaceINSt8__detail4_NFAINSt7__cxx1112regex_traitsIcEEEESaIvELN9__gnu_cxx12_Lock_policyE2EE10_M_destroyEv, symObjAddr: 0x500, symBinAddr: 0x100004B30, symSize: 0x10 }
  - { offset: 0x35C03, size: 0x8, addend: 0x0, symName: __ZNSt23_Sp_counted_ptr_inplaceINSt8__detail4_NFAINSt7__cxx1112regex_traitsIcEEEESaIvELN9__gnu_cxx12_Lock_policyE2EE10_M_disposeEv, symObjAddr: 0x14B0, symBinAddr: 0x100005AE0, symSize: 0xC0 }
  - { offset: 0x3600F, size: 0x8, addend: 0x0, symName: __ZNSt23_Sp_counted_ptr_inplaceINSt8__detail4_NFAINSt7__cxx1112regex_traitsIcEEEESaIvELN9__gnu_cxx12_Lock_policyE2EED0Ev, symObjAddr: 0x1F0, symBinAddr: 0x100004820, symSize: 0x10 }
  - { offset: 0x3603A, size: 0x8, addend: 0x0, symName: __ZNSt23_Sp_counted_ptr_inplaceINSt8__detail4_NFAINSt7__cxx1112regex_traitsIcEEEESaIvELN9__gnu_cxx12_Lock_policyE2EED1Ev, symObjAddr: 0x1E0, symBinAddr: 0x100004810, symSize: 0x10 }
  - { offset: 0x38983, size: 0x8, addend: 0x0, symName: __ZNSt6vectorISt4pairINSt7__cxx1112basic_stringIcSt11char_traitsIcESaIcEEES6_ESaIS7_EE17_M_realloc_insertIJS7_EEEvN9__gnu_cxx17__normal_iteratorIPS7_S9_EEDpOT_, symObjAddr: 0xF720, symBinAddr: 0x100013D50, symSize: 0x390 }
  - { offset: 0x39D40, size: 0x8, addend: 0x0, symName: __ZNSt6vectorISt4pairIccESaIS1_EE17_M_realloc_insertIJS1_EEEvN9__gnu_cxx17__normal_iteratorIPS1_S3_EEDpOT_, symObjAddr: 0xE540, symBinAddr: 0x100012B70, symSize: 0x150 }
  - { offset: 0x3A579, size: 0x8, addend: 0x0, symName: __ZNSt6vectorISt4pairINSt7__cxx1112basic_stringIcSt11char_traitsIcESaIcEEES6_ESaIS7_EEC1ERKS9_, symObjAddr: 0xDFB0, symBinAddr: 0x1000125E0, symSize: 0x210 }
  - { offset: 0x3B1BA, size: 0x8, addend: 0x0, symName: __ZNSt6vectorINSt7__cxx1112basic_stringIcSt11char_traitsIcESaIcEEESaIS5_EEC1ERKS7_, symObjAddr: 0xD9D0, symBinAddr: 0x100012000, symSize: 0x180 }
  - { offset: 0x3B94D, size: 0x8, addend: 0x0, symName: __ZNSt6vectorIcSaIcEEC1ERKS1_, symObjAddr: 0xD930, symBinAddr: 0x100011F60, symSize: 0xA0 }
  - { offset: 0x3C6A9, size: 0x8, addend: 0x0, symName: __ZNSt6vectorIcSaIcEE17_M_realloc_insertIJcEEEvN9__gnu_cxx17__normal_iteratorIPcS1_EEDpOT_, symObjAddr: 0xD580, symBinAddr: 0x100011BB0, symSize: 0x140 }
  - { offset: 0x3CBB8, size: 0x8, addend: 0x0, symName: __ZNSt6vectorINSt7__cxx1112basic_stringIcSt11char_traitsIcESaIcEEESaIS5_EE17_M_realloc_insertIJRKS5_EEEvN9__gnu_cxx17__normal_iteratorIPS5_S7_EEDpOT_, symObjAddr: 0xD2F0, symBinAddr: 0x100011920, symSize: 0x230 }
  - { offset: 0x3E2B6, size: 0x8, addend: 0x0, symName: __ZZNKSt8__detail11_AnyMatcherINSt7__cxx1112regex_traitsIcEELb0ELb1ELb1EEclEcE5__nul, symObjAddr: 0x154E0, symBinAddr: 0x100024008, symSize: 0x0 }
  - { offset: 0x3E326, size: 0x8, addend: 0x0, symName: __ZZNKSt8__detail11_AnyMatcherINSt7__cxx1112regex_traitsIcEELb0ELb1ELb0EEclEcE5__nul, symObjAddr: 0x154F0, symBinAddr: 0x100024018, symSize: 0x0 }
  - { offset: 0x3E396, size: 0x8, addend: 0x0, symName: __ZZNKSt8__detail11_AnyMatcherINSt7__cxx1112regex_traitsIcEELb0ELb0ELb1EEclEcE5__nul, symObjAddr: 0x15500, symBinAddr: 0x100024028, symSize: 0x0 }
  - { offset: 0x3E3D6, size: 0x8, addend: 0x0, symName: __ZZNKSt8__detail11_AnyMatcherINSt7__cxx1112regex_traitsIcEELb0ELb0ELb0EEclEcE5__nul, symObjAddr: 0x15510, symBinAddr: 0x100024038, symSize: 0x0 }
  - { offset: 0x3EA7C, size: 0x8, addend: 0x0, symName: __ZNSt6vectorINSt7__cxx1112basic_stringIcSt11char_traitsIcESaIcEEESaIS5_EE9push_backERKS5_, symObjAddr: 0xD520, symBinAddr: 0x100011B50, symSize: 0x60 }
  - { offset: 0x3EC19, size: 0x8, addend: 0x0, symName: __ZNKSt7__cxx1112regex_traitsIcE17transform_primaryIPcEENS_12basic_stringIcSt11char_traitsIcESaIcEEET_S9_, symObjAddr: 0xD160, symBinAddr: 0x100011790, symSize: 0x190 }
  - { offset: 0x3F51D, size: 0x8, addend: 0x0, symName: __ZNKSt7__cxx1112regex_traitsIcE18lookup_collatenameIPKcEENS_12basic_stringIcSt11char_traitsIcESaIcEEET_SA_, symObjAddr: 0xCF00, symBinAddr: 0x100011530, symSize: 0x260 }
  - { offset: 0x3F5A3, size: 0x8, addend: 0x0, symName: __ZZNKSt7__cxx1112regex_traitsIcE18lookup_collatenameIPKcEENS_12basic_stringIcSt11char_traitsIcESaIcEEET_SA_E14__collatenames, symObjAddr: 0x15518, symBinAddr: 0x100024040, symSize: 0x0 }
  - { offset: 0x41650, size: 0x8, addend: 0x0, symName: __ZNSt8__detail15_BracketMatcherINSt7__cxx1112regex_traitsIcEELb1ELb1EE13_M_make_rangeEcc, symObjAddr: 0x105E0, symBinAddr: 0x100014C10, symSize: 0x3A0 }
  - { offset: 0x4281F, size: 0x8, addend: 0x0, symName: __ZNSt8__detail15_BracketMatcherINSt7__cxx1112regex_traitsIcEELb0ELb1EE13_M_make_rangeEcc, symObjAddr: 0xFAB0, symBinAddr: 0x1000140E0, symSize: 0x3A0 }
  - { offset: 0x44487, size: 0x8, addend: 0x0, symName: __ZNSt6vectorINSt7__cxx1112regex_traitsIcE10_RegexMaskESaIS3_EE17_M_realloc_insertIJRKS3_EEEvN9__gnu_cxx17__normal_iteratorIPS3_S5_EEDpOT_, symObjAddr: 0xCDA0, symBinAddr: 0x1000113D0, symSize: 0x160 }
  - { offset: 0x455CB, size: 0x8, addend: 0x0, symName: __ZZNKSt8__detail9_ExecutorIN9__gnu_cxx17__normal_iteratorIPKcNSt7__cxx1112basic_stringIcSt11char_traitsIcESaIcEEEEESaINS5_9sub_matchISB_EEENS5_12regex_traitsIcEELb1EE10_M_is_wordEcE3__s, symObjAddr: 0x151D8, symBinAddr: 0x10001A970, symSize: 0x0 }
  - { offset: 0x455EF, size: 0x8, addend: 0x0, symName: __ZNKSt8__detail9_ExecutorIN9__gnu_cxx17__normal_iteratorIPKcNSt7__cxx1112basic_stringIcSt11char_traitsIcESaIcEEEEESaINS5_9sub_matchISB_EEENS5_12regex_traitsIcEELb1EE21_M_is_line_terminatorEc, symObjAddr: 0xBB90, symBinAddr: 0x1000101C0, symSize: 0x100 }
  - { offset: 0x45B43, size: 0x8, addend: 0x0, symName: __ZZNKSt8__detail9_ExecutorIN9__gnu_cxx17__normal_iteratorIPKcNSt7__cxx1112basic_stringIcSt11char_traitsIcESaIcEEEEESaINS5_9sub_matchISB_EEENS5_12regex_traitsIcEELb0EE10_M_is_wordEcE3__s, symObjAddr: 0x151E0, symBinAddr: 0x10001A978, symSize: 0x0 }
  - { offset: 0x45B67, size: 0x8, addend: 0x0, symName: __ZNKSt8__detail9_ExecutorIN9__gnu_cxx17__normal_iteratorIPKcNSt7__cxx1112basic_stringIcSt11char_traitsIcESaIcEEEEESaINS5_9sub_matchISB_EEENS5_12regex_traitsIcEELb0EE21_M_is_line_terminatorEc, symObjAddr: 0xA840, symBinAddr: 0x10000EE70, symSize: 0x100 }
  - { offset: 0x46101, size: 0x8, addend: 0x0, symName: __ZNSt5dequeINSt8__detail9_StateSeqINSt7__cxx1112regex_traitsIcEEEESaIS5_EE17_M_reallocate_mapEmb, symObjAddr: 0x8CC0, symBinAddr: 0x10000D2F0, symSize: 0x1A0 }
  - { offset: 0x467CD, size: 0x8, addend: 0x0, symName: __ZNSt5dequeIlSaIlEE16_M_push_back_auxIJRKlEEEvDpOT_, symObjAddr: 0x82B0, symBinAddr: 0x10000C8E0, symSize: 0x220 }
  - { offset: 0x470AC, size: 0x8, addend: 0x0, symName: __ZNSt11_Deque_baseIlSaIlEE17_M_initialize_mapEm, symObjAddr: 0x8190, symBinAddr: 0x10000C7C0, symSize: 0x120 }
  - { offset: 0x4769B, size: 0x8, addend: 0x0, symName: __ZNSt8__detail9_CompilerINSt7__cxx1112regex_traitsIcEEE18_M_expression_termILb1ELb1EEEbRNS4_13_BracketStateERNS_15_BracketMatcherIS3_XT_EXT0_EEE, symObjAddr: 0x10980, symBinAddr: 0x100014FB0, symSize: 0x600 }
  - { offset: 0x48AA3, size: 0x8, addend: 0x0, symName: __ZNSt8__detail9_CompilerINSt7__cxx1112regex_traitsIcEEE18_M_expression_termILb1ELb0EEEbRNS4_13_BracketStateERNS_15_BracketMatcherIS3_XT_EXT0_EEE, symObjAddr: 0xEE70, symBinAddr: 0x1000134A0, symSize: 0x5C0 }
  - { offset: 0x49E8B, size: 0x8, addend: 0x0, symName: __ZNSt8__detail9_CompilerINSt7__cxx1112regex_traitsIcEEE18_M_expression_termILb0ELb1EEEbRNS4_13_BracketStateERNS_15_BracketMatcherIS3_XT_EXT0_EEE, symObjAddr: 0xFE50, symBinAddr: 0x100014480, symSize: 0x570 }
  - { offset: 0x4B151, size: 0x8, addend: 0x0, symName: __ZNSt8__detail9_CompilerINSt7__cxx1112regex_traitsIcEEE18_M_expression_termILb0ELb0EEEbRNS4_13_BracketStateERNS_15_BracketMatcherIS3_XT_EXT0_EEE, symObjAddr: 0xE690, symBinAddr: 0x100012CC0, symSize: 0x5C0 }
  - { offset: 0x4C57A, size: 0x8, addend: 0x0, symName: __ZNSt17_Function_handlerIFbcENSt8__detail15_BracketMatcherINSt7__cxx1112regex_traitsIcEELb1ELb1EEEE10_M_managerERSt9_Any_dataRKS8_St18_Manager_operation, symObjAddr: 0xE380, symBinAddr: 0x1000129B0, symSize: 0x1C0 }
  - { offset: 0x4C9E0, size: 0x8, addend: 0x0, symName: __ZNSt17_Function_handlerIFbcENSt8__detail15_BracketMatcherINSt7__cxx1112regex_traitsIcEELb1ELb1EEEE9_M_invokeERKSt9_Any_dataOc, symObjAddr: 0x1B0, symBinAddr: 0x1000047E0, symSize: 0x30 }
  - { offset: 0x4CA1C, size: 0x8, addend: 0x0, symName: __ZNSt17_Function_handlerIFbcENSt8__detail15_BracketMatcherINSt7__cxx1112regex_traitsIcEELb1ELb1EEEE9_M_invokeERKSt9_Any_dataOc, symObjAddr: 0x1B0, symBinAddr: 0x1000047E0, symSize: 0x30 }
  - { offset: 0x4CA4A, size: 0x8, addend: 0x0, symName: __ZNSt17_Function_handlerIFbcENSt8__detail15_BracketMatcherINSt7__cxx1112regex_traitsIcEELb1ELb1EEEE9_M_invokeERKSt9_Any_dataOc, symObjAddr: 0x1B0, symBinAddr: 0x1000047E0, symSize: 0x30 }
  - { offset: 0x4CA7D, size: 0x8, addend: 0x0, symName: __ZNSt17_Function_handlerIFbcENSt8__detail15_BracketMatcherINSt7__cxx1112regex_traitsIcEELb1ELb1EEEE9_M_invokeERKSt9_Any_dataOc, symObjAddr: 0x1B0, symBinAddr: 0x1000047E0, symSize: 0x30 }
  - { offset: 0x4CA9E, size: 0x8, addend: 0x0, symName: __ZNSt17_Function_handlerIFbcENSt8__detail15_BracketMatcherINSt7__cxx1112regex_traitsIcEELb1ELb1EEEE9_M_invokeERKSt9_Any_dataOc, symObjAddr: 0x1B0, symBinAddr: 0x1000047E0, symSize: 0x30 }
  - { offset: 0x4CAC6, size: 0x8, addend: 0x0, symName: __ZNSt17_Function_handlerIFbcENSt8__detail15_BracketMatcherINSt7__cxx1112regex_traitsIcEELb1ELb1EEEE9_M_invokeERKSt9_Any_dataOc, symObjAddr: 0x1B0, symBinAddr: 0x1000047E0, symSize: 0x30 }
  - { offset: 0x4CAE8, size: 0x8, addend: 0x0, symName: __ZNSt17_Function_handlerIFbcENSt8__detail15_BracketMatcherINSt7__cxx1112regex_traitsIcEELb1ELb1EEEE9_M_invokeERKSt9_Any_dataOc, symObjAddr: 0x1B0, symBinAddr: 0x1000047E0, symSize: 0x30 }
  - { offset: 0x4CB0A, size: 0x8, addend: 0x0, symName: __ZNSt17_Function_handlerIFbcENSt8__detail15_BracketMatcherINSt7__cxx1112regex_traitsIcEELb1ELb1EEEE9_M_invokeERKSt9_Any_dataOc, symObjAddr: 0x1B0, symBinAddr: 0x1000047E0, symSize: 0x30 }
  - { offset: 0x4CBC8, size: 0x8, addend: 0x0, symName: __ZNSt17_Function_handlerIFbcENSt8__detail15_BracketMatcherINSt7__cxx1112regex_traitsIcEELb1ELb0EEEE10_M_managerERSt9_Any_dataRKS8_St18_Manager_operation, symObjAddr: 0xDD80, symBinAddr: 0x1000123B0, symSize: 0x230 }
  - { offset: 0x4D313, size: 0x8, addend: 0x0, symName: __ZNSt17_Function_handlerIFbcENSt8__detail15_BracketMatcherINSt7__cxx1112regex_traitsIcEELb1ELb0EEEE9_M_invokeERKSt9_Any_dataOc, symObjAddr: 0x180, symBinAddr: 0x1000047B0, symSize: 0x30 }
  - { offset: 0x4D34F, size: 0x8, addend: 0x0, symName: __ZNSt17_Function_handlerIFbcENSt8__detail15_BracketMatcherINSt7__cxx1112regex_traitsIcEELb1ELb0EEEE9_M_invokeERKSt9_Any_dataOc, symObjAddr: 0x180, symBinAddr: 0x1000047B0, symSize: 0x30 }
  - { offset: 0x4D37D, size: 0x8, addend: 0x0, symName: __ZNSt17_Function_handlerIFbcENSt8__detail15_BracketMatcherINSt7__cxx1112regex_traitsIcEELb1ELb0EEEE9_M_invokeERKSt9_Any_dataOc, symObjAddr: 0x180, symBinAddr: 0x1000047B0, symSize: 0x30 }
  - { offset: 0x4D3B0, size: 0x8, addend: 0x0, symName: __ZNSt17_Function_handlerIFbcENSt8__detail15_BracketMatcherINSt7__cxx1112regex_traitsIcEELb1ELb0EEEE9_M_invokeERKSt9_Any_dataOc, symObjAddr: 0x180, symBinAddr: 0x1000047B0, symSize: 0x30 }
  - { offset: 0x4D3D1, size: 0x8, addend: 0x0, symName: __ZNSt17_Function_handlerIFbcENSt8__detail15_BracketMatcherINSt7__cxx1112regex_traitsIcEELb1ELb0EEEE9_M_invokeERKSt9_Any_dataOc, symObjAddr: 0x180, symBinAddr: 0x1000047B0, symSize: 0x30 }
  - { offset: 0x4D3F9, size: 0x8, addend: 0x0, symName: __ZNSt17_Function_handlerIFbcENSt8__detail15_BracketMatcherINSt7__cxx1112regex_traitsIcEELb1ELb0EEEE9_M_invokeERKSt9_Any_dataOc, symObjAddr: 0x180, symBinAddr: 0x1000047B0, symSize: 0x30 }
  - { offset: 0x4D41B, size: 0x8, addend: 0x0, symName: __ZNSt17_Function_handlerIFbcENSt8__detail15_BracketMatcherINSt7__cxx1112regex_traitsIcEELb1ELb0EEEE9_M_invokeERKSt9_Any_dataOc, symObjAddr: 0x180, symBinAddr: 0x1000047B0, symSize: 0x30 }
  - { offset: 0x4D43D, size: 0x8, addend: 0x0, symName: __ZNSt17_Function_handlerIFbcENSt8__detail15_BracketMatcherINSt7__cxx1112regex_traitsIcEELb1ELb0EEEE9_M_invokeERKSt9_Any_dataOc, symObjAddr: 0x180, symBinAddr: 0x1000047B0, symSize: 0x30 }
  - { offset: 0x4D4FB, size: 0x8, addend: 0x0, symName: __ZNSt17_Function_handlerIFbcENSt8__detail15_BracketMatcherINSt7__cxx1112regex_traitsIcEELb0ELb1EEEE10_M_managerERSt9_Any_dataRKS8_St18_Manager_operation, symObjAddr: 0xE1C0, symBinAddr: 0x1000127F0, symSize: 0x1C0 }
  - { offset: 0x4D961, size: 0x8, addend: 0x0, symName: __ZNSt17_Function_handlerIFbcENSt8__detail15_BracketMatcherINSt7__cxx1112regex_traitsIcEELb0ELb1EEEE9_M_invokeERKSt9_Any_dataOc, symObjAddr: 0x150, symBinAddr: 0x100004780, symSize: 0x30 }
  - { offset: 0x4D99D, size: 0x8, addend: 0x0, symName: __ZNSt17_Function_handlerIFbcENSt8__detail15_BracketMatcherINSt7__cxx1112regex_traitsIcEELb0ELb1EEEE9_M_invokeERKSt9_Any_dataOc, symObjAddr: 0x150, symBinAddr: 0x100004780, symSize: 0x30 }
  - { offset: 0x4D9CB, size: 0x8, addend: 0x0, symName: __ZNSt17_Function_handlerIFbcENSt8__detail15_BracketMatcherINSt7__cxx1112regex_traitsIcEELb0ELb1EEEE9_M_invokeERKSt9_Any_dataOc, symObjAddr: 0x150, symBinAddr: 0x100004780, symSize: 0x30 }
  - { offset: 0x4D9FE, size: 0x8, addend: 0x0, symName: __ZNSt17_Function_handlerIFbcENSt8__detail15_BracketMatcherINSt7__cxx1112regex_traitsIcEELb0ELb1EEEE9_M_invokeERKSt9_Any_dataOc, symObjAddr: 0x150, symBinAddr: 0x100004780, symSize: 0x30 }
  - { offset: 0x4DA1F, size: 0x8, addend: 0x0, symName: __ZNSt17_Function_handlerIFbcENSt8__detail15_BracketMatcherINSt7__cxx1112regex_traitsIcEELb0ELb1EEEE9_M_invokeERKSt9_Any_dataOc, symObjAddr: 0x150, symBinAddr: 0x100004780, symSize: 0x30 }
  - { offset: 0x4DA47, size: 0x8, addend: 0x0, symName: __ZNSt17_Function_handlerIFbcENSt8__detail15_BracketMatcherINSt7__cxx1112regex_traitsIcEELb0ELb1EEEE9_M_invokeERKSt9_Any_dataOc, symObjAddr: 0x150, symBinAddr: 0x100004780, symSize: 0x30 }
  - { offset: 0x4DA69, size: 0x8, addend: 0x0, symName: __ZNSt17_Function_handlerIFbcENSt8__detail15_BracketMatcherINSt7__cxx1112regex_traitsIcEELb0ELb1EEEE9_M_invokeERKSt9_Any_dataOc, symObjAddr: 0x150, symBinAddr: 0x100004780, symSize: 0x30 }
  - { offset: 0x4DA8B, size: 0x8, addend: 0x0, symName: __ZNSt17_Function_handlerIFbcENSt8__detail15_BracketMatcherINSt7__cxx1112regex_traitsIcEELb0ELb1EEEE9_M_invokeERKSt9_Any_dataOc, symObjAddr: 0x150, symBinAddr: 0x100004780, symSize: 0x30 }
  - { offset: 0x4DBA4, size: 0x8, addend: 0x0, symName: __ZNSt17_Function_handlerIFbcENSt8__detail15_BracketMatcherINSt7__cxx1112regex_traitsIcEELb0ELb0EEEE10_M_managerERSt9_Any_dataRKS8_St18_Manager_operation, symObjAddr: 0xDB50, symBinAddr: 0x100012180, symSize: 0x230 }
  - { offset: 0x4E2EF, size: 0x8, addend: 0x0, symName: __ZNSt17_Function_handlerIFbcENSt8__detail15_BracketMatcherINSt7__cxx1112regex_traitsIcEELb0ELb0EEEE9_M_invokeERKSt9_Any_dataOc, symObjAddr: 0x120, symBinAddr: 0x100004750, symSize: 0x30 }
  - { offset: 0x4E32B, size: 0x8, addend: 0x0, symName: __ZNSt17_Function_handlerIFbcENSt8__detail15_BracketMatcherINSt7__cxx1112regex_traitsIcEELb0ELb0EEEE9_M_invokeERKSt9_Any_dataOc, symObjAddr: 0x120, symBinAddr: 0x100004750, symSize: 0x30 }
  - { offset: 0x4E359, size: 0x8, addend: 0x0, symName: __ZNSt17_Function_handlerIFbcENSt8__detail15_BracketMatcherINSt7__cxx1112regex_traitsIcEELb0ELb0EEEE9_M_invokeERKSt9_Any_dataOc, symObjAddr: 0x120, symBinAddr: 0x100004750, symSize: 0x30 }
  - { offset: 0x4E38C, size: 0x8, addend: 0x0, symName: __ZNSt17_Function_handlerIFbcENSt8__detail15_BracketMatcherINSt7__cxx1112regex_traitsIcEELb0ELb0EEEE9_M_invokeERKSt9_Any_dataOc, symObjAddr: 0x120, symBinAddr: 0x100004750, symSize: 0x30 }
  - { offset: 0x4E3AD, size: 0x8, addend: 0x0, symName: __ZNSt17_Function_handlerIFbcENSt8__detail15_BracketMatcherINSt7__cxx1112regex_traitsIcEELb0ELb0EEEE9_M_invokeERKSt9_Any_dataOc, symObjAddr: 0x120, symBinAddr: 0x100004750, symSize: 0x30 }
  - { offset: 0x4E3D5, size: 0x8, addend: 0x0, symName: __ZNSt17_Function_handlerIFbcENSt8__detail15_BracketMatcherINSt7__cxx1112regex_traitsIcEELb0ELb0EEEE9_M_invokeERKSt9_Any_dataOc, symObjAddr: 0x120, symBinAddr: 0x100004750, symSize: 0x30 }
  - { offset: 0x4E3F7, size: 0x8, addend: 0x0, symName: __ZNSt17_Function_handlerIFbcENSt8__detail15_BracketMatcherINSt7__cxx1112regex_traitsIcEELb0ELb0EEEE9_M_invokeERKSt9_Any_dataOc, symObjAddr: 0x120, symBinAddr: 0x100004750, symSize: 0x30 }
  - { offset: 0x4E419, size: 0x8, addend: 0x0, symName: __ZNSt17_Function_handlerIFbcENSt8__detail15_BracketMatcherINSt7__cxx1112regex_traitsIcEELb0ELb0EEEE9_M_invokeERKSt9_Any_dataOc, symObjAddr: 0x120, symBinAddr: 0x100004750, symSize: 0x30 }
  - { offset: 0x4E5E0, size: 0x8, addend: 0x0, symName: __ZNKSt7__cxx1112regex_traitsIcE16lookup_classnameIPKcEENS1_10_RegexMaskET_S6_b, symObjAddr: 0x7D40, symBinAddr: 0x10000C370, symSize: 0x450 }
  - { offset: 0x4E67D, size: 0x8, addend: 0x0, symName: __ZZNKSt7__cxx1112regex_traitsIcE16lookup_classnameIPKcEENS1_10_RegexMaskET_S6_bE12__classnames, symObjAddr: 0x15370, symBinAddr: 0x100020A90, symSize: 0x0 }
  - { offset: 0x4EE5E, size: 0x8, addend: 0x0, symName: __ZNSt17_Function_handlerIFbcENSt8__detail12_CharMatcherINSt7__cxx1112regex_traitsIcEELb1ELb1EEEE9_M_invokeERKSt9_Any_dataOc, symObjAddr: 0x10F0, symBinAddr: 0x100005720, symSize: 0x70 }
  - { offset: 0x4F0AB, size: 0x8, addend: 0x0, symName: __ZNSt17_Function_handlerIFbcENSt8__detail12_CharMatcherINSt7__cxx1112regex_traitsIcEELb1ELb0EEEE9_M_invokeERKSt9_Any_dataOc, symObjAddr: 0x1160, symBinAddr: 0x100005790, symSize: 0x70 }
  - { offset: 0x4F2F8, size: 0x8, addend: 0x0, symName: __ZNSt17_Function_handlerIFbcENSt8__detail12_CharMatcherINSt7__cxx1112regex_traitsIcEELb0ELb1EEEE9_M_invokeERKSt9_Any_dataOc, symObjAddr: 0x100, symBinAddr: 0x100004730, symSize: 0x20 }
  - { offset: 0x4F332, size: 0x8, addend: 0x0, symName: __ZNSt17_Function_handlerIFbcENSt8__detail12_CharMatcherINSt7__cxx1112regex_traitsIcEELb0ELb1EEEE9_M_invokeERKSt9_Any_dataOc, symObjAddr: 0x100, symBinAddr: 0x100004730, symSize: 0x20 }
  - { offset: 0x4F358, size: 0x8, addend: 0x0, symName: __ZNSt17_Function_handlerIFbcENSt8__detail12_CharMatcherINSt7__cxx1112regex_traitsIcEELb0ELb1EEEE9_M_invokeERKSt9_Any_dataOc, symObjAddr: 0x100, symBinAddr: 0x100004730, symSize: 0x20 }
  - { offset: 0x4F383, size: 0x8, addend: 0x0, symName: __ZNSt17_Function_handlerIFbcENSt8__detail12_CharMatcherINSt7__cxx1112regex_traitsIcEELb0ELb1EEEE9_M_invokeERKSt9_Any_dataOc, symObjAddr: 0x100, symBinAddr: 0x100004730, symSize: 0x20 }
  - { offset: 0x4F409, size: 0x8, addend: 0x0, symName: __ZNSt17_Function_handlerIFbcENSt8__detail12_CharMatcherINSt7__cxx1112regex_traitsIcEELb0ELb0EEEE9_M_invokeERKSt9_Any_dataOc, symObjAddr: 0xE0, symBinAddr: 0x100004710, symSize: 0x20 }
  - { offset: 0x4F443, size: 0x8, addend: 0x0, symName: __ZNSt17_Function_handlerIFbcENSt8__detail12_CharMatcherINSt7__cxx1112regex_traitsIcEELb0ELb0EEEE9_M_invokeERKSt9_Any_dataOc, symObjAddr: 0xE0, symBinAddr: 0x100004710, symSize: 0x20 }
  - { offset: 0x4F469, size: 0x8, addend: 0x0, symName: __ZNSt17_Function_handlerIFbcENSt8__detail12_CharMatcherINSt7__cxx1112regex_traitsIcEELb0ELb0EEEE9_M_invokeERKSt9_Any_dataOc, symObjAddr: 0xE0, symBinAddr: 0x100004710, symSize: 0x20 }
  - { offset: 0x4F494, size: 0x8, addend: 0x0, symName: __ZNSt17_Function_handlerIFbcENSt8__detail12_CharMatcherINSt7__cxx1112regex_traitsIcEELb0ELb0EEEE9_M_invokeERKSt9_Any_dataOc, symObjAddr: 0xE0, symBinAddr: 0x100004710, symSize: 0x20 }
  - { offset: 0x4F51A, size: 0x8, addend: 0x0, symName: __ZNSt17_Function_handlerIFbcENSt8__detail11_AnyMatcherINSt7__cxx1112regex_traitsIcEELb1ELb1ELb1EEEE9_M_invokeERKSt9_Any_dataOc, symObjAddr: 0x1310, symBinAddr: 0x100005940, symSize: 0xD0 }
  - { offset: 0x4F98F, size: 0x8, addend: 0x0, symName: __ZNSt17_Function_handlerIFbcENSt8__detail11_AnyMatcherINSt7__cxx1112regex_traitsIcEELb1ELb1ELb0EEEE9_M_invokeERKSt9_Any_dataOc, symObjAddr: 0x13E0, symBinAddr: 0x100005A10, symSize: 0xD0 }
  - { offset: 0x4FE04, size: 0x8, addend: 0x0, symName: __ZNSt17_Function_handlerIFbcENSt8__detail11_AnyMatcherINSt7__cxx1112regex_traitsIcEELb1ELb0ELb1EEEE9_M_invokeERKSt9_Any_dataOc, symObjAddr: 0xC0, symBinAddr: 0x1000046F0, symSize: 0x20 }
  - { offset: 0x4FE3E, size: 0x8, addend: 0x0, symName: __ZNSt17_Function_handlerIFbcENSt8__detail11_AnyMatcherINSt7__cxx1112regex_traitsIcEELb1ELb0ELb1EEEE9_M_invokeERKSt9_Any_dataOc, symObjAddr: 0xC0, symBinAddr: 0x1000046F0, symSize: 0x20 }
  - { offset: 0x4FE6C, size: 0x8, addend: 0x0, symName: __ZNSt17_Function_handlerIFbcENSt8__detail11_AnyMatcherINSt7__cxx1112regex_traitsIcEELb1ELb0ELb1EEEE9_M_invokeERKSt9_Any_dataOc, symObjAddr: 0xC0, symBinAddr: 0x1000046F0, symSize: 0x20 }
  - { offset: 0x4FF0D, size: 0x8, addend: 0x0, symName: __ZNSt17_Function_handlerIFbcENSt8__detail11_AnyMatcherINSt7__cxx1112regex_traitsIcEELb1ELb0ELb0EEEE10_M_managerERSt9_Any_dataRKS8_St18_Manager_operation, symObjAddr: 0x80, symBinAddr: 0x1000046B0, symSize: 0x40 }
  - { offset: 0x4FFDC, size: 0x8, addend: 0x0, symName: __ZNSt17_Function_handlerIFbcENSt8__detail11_AnyMatcherINSt7__cxx1112regex_traitsIcEELb1ELb0ELb0EEEE9_M_invokeERKSt9_Any_dataOc, symObjAddr: 0x60, symBinAddr: 0x100004690, symSize: 0x20 }
  - { offset: 0x50016, size: 0x8, addend: 0x0, symName: __ZNSt17_Function_handlerIFbcENSt8__detail11_AnyMatcherINSt7__cxx1112regex_traitsIcEELb1ELb0ELb0EEEE9_M_invokeERKSt9_Any_dataOc, symObjAddr: 0x60, symBinAddr: 0x100004690, symSize: 0x20 }
  - { offset: 0x50044, size: 0x8, addend: 0x0, symName: __ZNSt17_Function_handlerIFbcENSt8__detail11_AnyMatcherINSt7__cxx1112regex_traitsIcEELb1ELb0ELb0EEEE9_M_invokeERKSt9_Any_dataOc, symObjAddr: 0x60, symBinAddr: 0x100004690, symSize: 0x20 }
  - { offset: 0x50117, size: 0x8, addend: 0x0, symName: __ZNSt17_Function_handlerIFbcENSt8__detail11_AnyMatcherINSt7__cxx1112regex_traitsIcEELb0ELb1ELb1EEEE9_M_invokeERKSt9_Any_dataOc, symObjAddr: 0x1770, symBinAddr: 0x100005DA0, symSize: 0x100 }
  - { offset: 0x5042B, size: 0x8, addend: 0x0, symName: __ZNSt17_Function_handlerIFbcENSt8__detail11_AnyMatcherINSt7__cxx1112regex_traitsIcEELb0ELb1ELb0EEEE9_M_invokeERKSt9_Any_dataOc, symObjAddr: 0x1670, symBinAddr: 0x100005CA0, symSize: 0x100 }
  - { offset: 0x5073F, size: 0x8, addend: 0x0, symName: __ZNSt17_Function_handlerIFbcENSt8__detail11_AnyMatcherINSt7__cxx1112regex_traitsIcEELb0ELb0ELb1EEEE9_M_invokeERKSt9_Any_dataOc, symObjAddr: 0x610, symBinAddr: 0x100004C40, symSize: 0x90 }
  - { offset: 0x50832, size: 0x8, addend: 0x0, symName: __ZNSt17_Function_handlerIFbcENSt8__detail11_AnyMatcherINSt7__cxx1112regex_traitsIcEELb0ELb0ELb0EEEE10_M_managerERSt9_Any_dataRKS8_St18_Manager_operation, symObjAddr: 0x20, symBinAddr: 0x100004650, symSize: 0x40 }
  - { offset: 0x50901, size: 0x8, addend: 0x0, symName: __ZNSt17_Function_handlerIFbcENSt8__detail11_AnyMatcherINSt7__cxx1112regex_traitsIcEELb0ELb0ELb0EEEE9_M_invokeERKSt9_Any_dataOc, symObjAddr: 0x6A0, symBinAddr: 0x100004CD0, symSize: 0x90 }
  - { offset: 0x50BD5, size: 0x8, addend: 0x0, symName: __ZNSt8__detail9_ExecutorIN9__gnu_cxx17__normal_iteratorIPKcNSt7__cxx1112basic_stringIcSt11char_traitsIcESaIcEEEEESaINS5_9sub_matchISB_EEENS5_12regex_traitsIcEELb1EE12_M_lookaheadEl, symObjAddr: 0xC400, symBinAddr: 0x100010A30, symSize: 0x2B0 }
  - { offset: 0x5194C, size: 0x8, addend: 0x0, symName: __ZNSt8__detail9_ExecutorIN9__gnu_cxx17__normal_iteratorIPKcNSt7__cxx1112basic_stringIcSt11char_traitsIcESaIcEEEEESaINS5_9sub_matchISB_EEENS5_12regex_traitsIcEELb1EE16_M_rep_once_moreENSH_11_Match_modeEl, symObjAddr: 0xC340, symBinAddr: 0x100010970, symSize: 0xC0 }
  - { offset: 0x51D6C, size: 0x8, addend: 0x0, symName: __ZNSt8__detail9_ExecutorIN9__gnu_cxx17__normal_iteratorIPKcNSt7__cxx1112basic_stringIcSt11char_traitsIcESaIcEEEEESaINS5_9sub_matchISB_EEENS5_12regex_traitsIcEELb0EE12_M_lookaheadEl, symObjAddr: 0xAF30, symBinAddr: 0x10000F560, symSize: 0x360 }
  - { offset: 0x52E0A, size: 0x8, addend: 0x0, symName: __ZNSt8__detail9_ExecutorIN9__gnu_cxx17__normal_iteratorIPKcNSt7__cxx1112basic_stringIcSt11char_traitsIcESaIcEEEEESaINS5_9sub_matchISB_EEENS5_12regex_traitsIcEELb0EE16_M_rep_once_moreENSH_11_Match_modeEl, symObjAddr: 0xB810, symBinAddr: 0x10000FE40, symSize: 0xC0 }
  - { offset: 0x52FD3, size: 0x8, addend: 0x0, symName: __ZNSt6vectorISt4pairIlS_INSt7__cxx119sub_matchIN9__gnu_cxx17__normal_iteratorIPKcNS1_12basic_stringIcSt11char_traitsIcESaIcEEEEEEESaISD_EEESaISG_EE17_M_realloc_insertIJRlRKSF_EEEvNS4_IPSG_SI_EEDpOT_, symObjAddr: 0x74A0, symBinAddr: 0x10000BAD0, symSize: 0x280 }
  - { offset: 0x53F9B, size: 0x8, addend: 0x0, symName: __ZNSt11_Deque_baseIlSaIlEED2Ev, symObjAddr: 0x7430, symBinAddr: 0x10000BA60, symSize: 0x70 }
  - { offset: 0x54276, size: 0x8, addend: 0x0, symName: __ZNSt8__detail9_CompilerINSt7__cxx1112regex_traitsIcEEE25_M_insert_bracket_matcherILb1ELb1EEEvb, symObjAddr: 0x10F80, symBinAddr: 0x1000155B0, symSize: 0x360 }
  - { offset: 0x552BC, size: 0x8, addend: 0x0, symName: __ZNSt8__detail9_CompilerINSt7__cxx1112regex_traitsIcEEE25_M_insert_bracket_matcherILb1ELb0EEEvb, symObjAddr: 0xF430, symBinAddr: 0x100013A60, symSize: 0x2F0 }
  - { offset: 0x55FDD, size: 0x8, addend: 0x0, symName: __ZNSt8__detail9_CompilerINSt7__cxx1112regex_traitsIcEEE25_M_insert_bracket_matcherILb0ELb1EEEvb, symObjAddr: 0x103C0, symBinAddr: 0x1000149F0, symSize: 0x220 }
  - { offset: 0x5675E, size: 0x8, addend: 0x0, symName: __ZNSt8__detail9_CompilerINSt7__cxx1112regex_traitsIcEEE25_M_insert_bracket_matcherILb0ELb0EEEvb, symObjAddr: 0xEC50, symBinAddr: 0x100013280, symSize: 0x220 }
  - { offset: 0x56E79, size: 0x8, addend: 0x0, symName: __ZNSt8__detail15_BracketMatcherINSt7__cxx1112regex_traitsIcEELb1ELb1EE8_M_readyEv, symObjAddr: 0x6B00, symBinAddr: 0x10000B130, symSize: 0x930 }
  - { offset: 0x5997C, size: 0x8, addend: 0x0, symName: __ZNSt8__detail15_BracketMatcherINSt7__cxx1112regex_traitsIcEELb1ELb0EE8_M_readyEv, symObjAddr: 0x6380, symBinAddr: 0x10000A9B0, symSize: 0x780 }
  - { offset: 0x5BB2D, size: 0x8, addend: 0x0, symName: __ZNSt8__detail15_BracketMatcherINSt7__cxx1112regex_traitsIcEELb0ELb1EE8_M_readyEv, symObjAddr: 0x5A60, symBinAddr: 0x10000A090, symSize: 0x920 }
  - { offset: 0x5E475, size: 0x8, addend: 0x0, symName: __ZNSt6vectorISt4pairINSt7__cxx1112basic_stringIcSt11char_traitsIcESaIcEEES6_ESaIS7_EED1Ev, symObjAddr: 0x59B0, symBinAddr: 0x100009FE0, symSize: 0xB0 }
  - { offset: 0x5E8EF, size: 0x8, addend: 0x0, symName: __ZNSt8__detail15_BracketMatcherINSt7__cxx1112regex_traitsIcEELb0ELb0EE8_M_readyEv, symObjAddr: 0x52E0, symBinAddr: 0x100009910, symSize: 0x6D0 }
  - { offset: 0x6082A, size: 0x8, addend: 0x0, symName: __ZNSt6vectorISt4pairIccESaIS1_EED1Ev, symObjAddr: 0x52C0, symBinAddr: 0x1000098F0, symSize: 0x20 }
  - { offset: 0x60948, size: 0x8, addend: 0x0, symName: __ZNSt6vectorINSt7__cxx1112basic_stringIcSt11char_traitsIcESaIcEEESaIS5_EED1Ev, symObjAddr: 0x5230, symBinAddr: 0x100009860, symSize: 0x90 }
  - { offset: 0x60C2F, size: 0x8, addend: 0x0, symName: __ZNSt6vectorIcSaIcEED1Ev, symObjAddr: 0x5210, symBinAddr: 0x100009840, symSize: 0x20 }
  - { offset: 0x610AE, size: 0x8, addend: 0x0, symName: __ZNSt8__detail4_NFAINSt7__cxx1112regex_traitsIcEEE17_M_insert_matcherESt8functionIFbcEE, symObjAddr: 0x5080, symBinAddr: 0x1000096B0, symSize: 0x190 }
  - { offset: 0x61EBD, size: 0x8, addend: 0x0, symName: __ZNSt8__detail9_ExecutorIN9__gnu_cxx17__normal_iteratorIPKcNSt7__cxx1112basic_stringIcSt11char_traitsIcESaIcEEEEESaINS5_9sub_matchISB_EEENS5_12regex_traitsIcEELb0EE21_M_handle_alternativeENSH_11_Match_modeEl, symObjAddr: 0xBAE0, symBinAddr: 0x100010110, symSize: 0xB0 }
  - { offset: 0x61FAA, size: 0x8, addend: 0x0, symName: __ZNSt8__detail9_ExecutorIN9__gnu_cxx17__normal_iteratorIPKcNSt7__cxx1112basic_stringIcSt11char_traitsIcESaIcEEEEESaINS5_9sub_matchISB_EEENS5_12regex_traitsIcEELb0EE17_M_handle_backrefENSH_11_Match_modeEl, symObjAddr: 0xB5F0, symBinAddr: 0x10000FC20, symSize: 0x220 }
  - { offset: 0x628FB, size: 0x8, addend: 0x0, symName: __ZNSt8__detail9_ExecutorIN9__gnu_cxx17__normal_iteratorIPKcNSt7__cxx1112basic_stringIcSt11char_traitsIcESaIcEEEEESaINS5_9sub_matchISB_EEENS5_12regex_traitsIcEELb0EE16_M_handle_repeatENSH_11_Match_modeEl, symObjAddr: 0xB8D0, symBinAddr: 0x10000FF00, symSize: 0xA0 }
  - { offset: 0x62E68, size: 0x8, addend: 0x0, symName: __ZNSt5dequeINSt8__detail9_StateSeqINSt7__cxx1112regex_traitsIcEEEESaIS5_EE16_M_push_back_auxIJRKS5_EEEvDpOT_, symObjAddr: 0x8E60, symBinAddr: 0x10000D490, symSize: 0x100 }
  - { offset: 0x63187, size: 0x8, addend: 0x0, symName: __ZNSt8__detail9_StateSeqINSt7__cxx1112regex_traitsIcEEE8_M_cloneEv, symObjAddr: 0x84D0, symBinAddr: 0x10000CB00, symSize: 0x7F0 }
  - { offset: 0x64A94, size: 0x8, addend: 0x0, symName: __ZNSt8__detail4_NFAINSt7__cxx1112regex_traitsIcEEE16_M_insert_repeatEllb, symObjAddr: 0x4F60, symBinAddr: 0x100009590, symSize: 0x120 }
  - { offset: 0x64DBD, size: 0x8, addend: 0x0, symName: __ZNSt8__detail9_CompilerINSt7__cxx1112regex_traitsIcEEE21_M_bracket_expressionEv, symObjAddr: 0x112E0, symBinAddr: 0x100015910, symSize: 0xC0 }
  - { offset: 0x64F77, size: 0x8, addend: 0x0, symName: __ZNSt8__detail9_CompilerINSt7__cxx1112regex_traitsIcEEE33_M_insert_character_class_matcherILb1ELb1EEEvv, symObjAddr: 0x9730, symBinAddr: 0x10000DD60, symSize: 0x210 }
  - { offset: 0x65712, size: 0x8, addend: 0x0, symName: __ZNSt8__detail15_BracketMatcherINSt7__cxx1112regex_traitsIcEELb1ELb1EED1Ev, symObjAddr: 0x4E10, symBinAddr: 0x100009440, symSize: 0x150 }
  - { offset: 0x65FEB, size: 0x8, addend: 0x0, symName: __ZNSt8__detail9_CompilerINSt7__cxx1112regex_traitsIcEEE33_M_insert_character_class_matcherILb1ELb0EEEvv, symObjAddr: 0x9940, symBinAddr: 0x10000DF70, symSize: 0x210 }
  - { offset: 0x666EB, size: 0x8, addend: 0x0, symName: __ZNSt8__detail15_BracketMatcherINSt7__cxx1112regex_traitsIcEELb1ELb0EED1Ev, symObjAddr: 0x4D30, symBinAddr: 0x100009360, symSize: 0xE0 }
  - { offset: 0x66CAF, size: 0x8, addend: 0x0, symName: __ZNSt8__detail9_CompilerINSt7__cxx1112regex_traitsIcEEE33_M_insert_character_class_matcherILb0ELb1EEEvv, symObjAddr: 0x9B50, symBinAddr: 0x10000E180, symSize: 0x210 }
  - { offset: 0x6744A, size: 0x8, addend: 0x0, symName: __ZNSt8__detail15_BracketMatcherINSt7__cxx1112regex_traitsIcEELb0ELb1EED1Ev, symObjAddr: 0x4BE0, symBinAddr: 0x100009210, symSize: 0x150 }
  - { offset: 0x67D23, size: 0x8, addend: 0x0, symName: __ZNSt8__detail9_CompilerINSt7__cxx1112regex_traitsIcEEE33_M_insert_character_class_matcherILb0ELb0EEEvv, symObjAddr: 0x9D60, symBinAddr: 0x10000E390, symSize: 0x210 }
  - { offset: 0x68423, size: 0x8, addend: 0x0, symName: __ZNSt8__detail15_BracketMatcherINSt7__cxx1112regex_traitsIcEELb0ELb0EED1Ev, symObjAddr: 0x4B00, symBinAddr: 0x100009130, symSize: 0xE0 }
  - { offset: 0x689E7, size: 0x8, addend: 0x0, symName: __ZNSt8__detail4_NFAINSt7__cxx1112regex_traitsIcEEE17_M_insert_backrefEm, symObjAddr: 0x4970, symBinAddr: 0x100008FA0, symSize: 0x190 }
  - { offset: 0x68AB0, size: 0x8, addend: 0x0, symName: __ZNSt8__detail4_NFAINSt7__cxx1112regex_traitsIcEEE17_M_insert_backrefEm, symObjAddr: 0x4970, symBinAddr: 0x100008FA0, symSize: 0x190 }
  - { offset: 0x68D71, size: 0x8, addend: 0x0, symName: __ZNSt8__detail9_CompilerINSt7__cxx1112regex_traitsIcEEE16_M_cur_int_valueEi, symObjAddr: 0x7BC0, symBinAddr: 0x10000C1F0, symSize: 0xA0 }
  - { offset: 0x68E1C, size: 0x8, addend: 0x0, symName: __ZNSt8__detail9_CompilerINSt7__cxx1112regex_traitsIcEEE22_M_insert_char_matcherILb1ELb1EEEvv, symObjAddr: 0x9F70, symBinAddr: 0x10000E5A0, symSize: 0xF0 }
  - { offset: 0x691CE, size: 0x8, addend: 0x0, symName: __ZNSt8__detail9_CompilerINSt7__cxx1112regex_traitsIcEEE22_M_insert_char_matcherILb1ELb0EEEvv, symObjAddr: 0xA060, symBinAddr: 0x10000E690, symSize: 0xF0 }
  - { offset: 0x69580, size: 0x8, addend: 0x0, symName: __ZNSt8__detail9_CompilerINSt7__cxx1112regex_traitsIcEEE22_M_insert_char_matcherILb0ELb1EEEvv, symObjAddr: 0xA150, symBinAddr: 0x10000E780, symSize: 0xC0 }
  - { offset: 0x69805, size: 0x8, addend: 0x0, symName: __ZNSt8__detail9_CompilerINSt7__cxx1112regex_traitsIcEEE22_M_insert_char_matcherILb0ELb0EEEvv, symObjAddr: 0xA210, symBinAddr: 0x10000E840, symSize: 0xB0 }
  - { offset: 0x69A8A, size: 0x8, addend: 0x0, symName: __ZNSt8__detail9_CompilerINSt7__cxx1112regex_traitsIcEEE11_M_try_charEv, symObjAddr: 0x7C60, symBinAddr: 0x10000C290, symSize: 0xE0 }
  - { offset: 0x69CBC, size: 0x8, addend: 0x0, symName: __ZNSt8__detail9_CompilerINSt7__cxx1112regex_traitsIcEEE26_M_insert_any_matcher_ecmaILb1ELb1EEEvv, symObjAddr: 0xA2C0, symBinAddr: 0x10000E8F0, symSize: 0xB0 }
  - { offset: 0x69CF6, size: 0x8, addend: 0x0, symName: __ZNSt8__detail9_CompilerINSt7__cxx1112regex_traitsIcEEE26_M_insert_any_matcher_ecmaILb1ELb1EEEvv, symObjAddr: 0xA2C0, symBinAddr: 0x10000E8F0, symSize: 0xB0 }
  - { offset: 0x69EBE, size: 0x8, addend: 0x0, symName: __ZNSt8__detail9_CompilerINSt7__cxx1112regex_traitsIcEEE26_M_insert_any_matcher_ecmaILb1ELb0EEEvv, symObjAddr: 0xA370, symBinAddr: 0x10000E9A0, symSize: 0xB0 }
  - { offset: 0x69EF8, size: 0x8, addend: 0x0, symName: __ZNSt8__detail9_CompilerINSt7__cxx1112regex_traitsIcEEE26_M_insert_any_matcher_ecmaILb1ELb0EEEvv, symObjAddr: 0xA370, symBinAddr: 0x10000E9A0, symSize: 0xB0 }
  - { offset: 0x6A0C0, size: 0x8, addend: 0x0, symName: __ZNSt8__detail9_CompilerINSt7__cxx1112regex_traitsIcEEE26_M_insert_any_matcher_ecmaILb0ELb1EEEvv, symObjAddr: 0xA420, symBinAddr: 0x10000EA50, symSize: 0xB0 }
  - { offset: 0x6A0FA, size: 0x8, addend: 0x0, symName: __ZNSt8__detail9_CompilerINSt7__cxx1112regex_traitsIcEEE26_M_insert_any_matcher_ecmaILb0ELb1EEEvv, symObjAddr: 0xA420, symBinAddr: 0x10000EA50, symSize: 0xB0 }
  - { offset: 0x6A2C2, size: 0x8, addend: 0x0, symName: __ZNSt8__detail9_CompilerINSt7__cxx1112regex_traitsIcEEE26_M_insert_any_matcher_ecmaILb0ELb0EEEvv, symObjAddr: 0xA4D0, symBinAddr: 0x10000EB00, symSize: 0xB0 }
  - { offset: 0x6A4C4, size: 0x8, addend: 0x0, symName: __ZNSt8__detail9_CompilerINSt7__cxx1112regex_traitsIcEEE27_M_insert_any_matcher_posixILb1ELb1EEEvv, symObjAddr: 0xA580, symBinAddr: 0x10000EBB0, symSize: 0xB0 }
  - { offset: 0x6A4FE, size: 0x8, addend: 0x0, symName: __ZNSt8__detail9_CompilerINSt7__cxx1112regex_traitsIcEEE27_M_insert_any_matcher_posixILb1ELb1EEEvv, symObjAddr: 0xA580, symBinAddr: 0x10000EBB0, symSize: 0xB0 }
  - { offset: 0x6A6C6, size: 0x8, addend: 0x0, symName: __ZNSt8__detail9_CompilerINSt7__cxx1112regex_traitsIcEEE27_M_insert_any_matcher_posixILb1ELb0EEEvv, symObjAddr: 0xA630, symBinAddr: 0x10000EC60, symSize: 0xB0 }
  - { offset: 0x6A700, size: 0x8, addend: 0x0, symName: __ZNSt8__detail9_CompilerINSt7__cxx1112regex_traitsIcEEE27_M_insert_any_matcher_posixILb1ELb0EEEvv, symObjAddr: 0xA630, symBinAddr: 0x10000EC60, symSize: 0xB0 }
  - { offset: 0x6A8C8, size: 0x8, addend: 0x0, symName: __ZNSt8__detail9_CompilerINSt7__cxx1112regex_traitsIcEEE27_M_insert_any_matcher_posixILb0ELb1EEEvv, symObjAddr: 0xA6E0, symBinAddr: 0x10000ED10, symSize: 0xB0 }
  - { offset: 0x6A902, size: 0x8, addend: 0x0, symName: __ZNSt8__detail9_CompilerINSt7__cxx1112regex_traitsIcEEE27_M_insert_any_matcher_posixILb0ELb1EEEvv, symObjAddr: 0xA6E0, symBinAddr: 0x10000ED10, symSize: 0xB0 }
  - { offset: 0x6AACA, size: 0x8, addend: 0x0, symName: __ZNSt8__detail9_CompilerINSt7__cxx1112regex_traitsIcEEE27_M_insert_any_matcher_posixILb0ELb0EEEvv, symObjAddr: 0xA790, symBinAddr: 0x10000EDC0, symSize: 0xB0 }
  - { offset: 0x6AD80, size: 0x8, addend: 0x0, symName: __ZNSt6vectorINSt8__detail6_StateIcEESaIS2_EE17_M_realloc_insertIJS2_EEEvN9__gnu_cxx17__normal_iteratorIPS2_S4_EEDpOT_, symObjAddr: 0x41C0, symBinAddr: 0x1000087F0, symSize: 0x2A0 }
  - { offset: 0x6B898, size: 0x8, addend: 0x0, symName: __ZNSt8__detail9_ExecutorIN9__gnu_cxx17__normal_iteratorIPKcNSt7__cxx1112basic_stringIcSt11char_traitsIcESaIcEEEEESaINS5_9sub_matchISB_EEENS5_12regex_traitsIcEELb1EE6_M_dfsENSH_11_Match_modeEl, symObjAddr: 0xBC90, symBinAddr: 0x1000102C0, symSize: 0x6B0 }
  - { offset: 0x6CFC4, size: 0x8, addend: 0x0, symName: __ZNSt8__detail9_CompilerINSt7__cxx1112regex_traitsIcEEE13_M_quantifierEv, symObjAddr: 0x8FA0, symBinAddr: 0x10000D5D0, symSize: 0x660 }
  - { offset: 0x6E4B1, size: 0x8, addend: 0x0, symName: __ZNSt8__detail9_CompilerINSt7__cxx1112regex_traitsIcEEE7_M_atomEv, symObjAddr: 0x113A0, symBinAddr: 0x1000159D0, symSize: 0x350 }
  - { offset: 0x6EDE4, size: 0x8, addend: 0x0, symName: __ZNSt8__detail9_CompilerINSt7__cxx1112regex_traitsIcEEE12_M_assertionEv, symObjAddr: 0x12EE0, symBinAddr: 0x100017510, symSize: 0x2DC }
  - { offset: 0x6F9CF, size: 0x8, addend: 0x0, symName: __ZNSt8__detail8_ScannerIcE12_M_eat_classEc, symObjAddr: 0x3D00, symBinAddr: 0x100008330, symSize: 0x130 }
  - { offset: 0x6FF96, size: 0x8, addend: 0x0, symName: __ZNSt6vectorINSt7__cxx119sub_matchIN9__gnu_cxx17__normal_iteratorIPKcNS0_12basic_stringIcSt11char_traitsIcESaIcEEEEEEESaISC_EE14_M_fill_assignEmRKSC_, symObjAddr: 0x3B30, symBinAddr: 0x100008160, symSize: 0x1D0 }
  - { offset: 0x70A40, size: 0x8, addend: 0x0, symName: __ZNSt6vectorImSaImEE17_M_realloc_insertIJRKmEEEvN9__gnu_cxx17__normal_iteratorIPmS1_EEDpOT_, symObjAddr: 0x39B0, symBinAddr: 0x100007FE0, symSize: 0x180 }
  - { offset: 0x70F90, size: 0x8, addend: 0x0, symName: __ZNSt8__detail8_ScannerIcE16_M_scan_in_braceEv, symObjAddr: 0x3770, symBinAddr: 0x100007DA0, symSize: 0x240 }
  - { offset: 0x71367, size: 0x8, addend: 0x0, symName: __ZNSt8__detail8_ScannerIcE18_M_scan_in_bracketEv, symObjAddr: 0x3E30, symBinAddr: 0x100008460, symSize: 0x160 }
  - { offset: 0x7145F, size: 0x8, addend: 0x0, symName: __ZNSt8__detail8_ScannerIcE14_M_scan_normalEv, symObjAddr: 0x33D0, symBinAddr: 0x100007A00, symSize: 0x3A0 }
  - { offset: 0x7178C, size: 0x8, addend: 0x0, symName: __ZNSt8__detail8_ScannerIcE17_M_eat_escape_awkEv, symObjAddr: 0x2F30, symBinAddr: 0x100007560, symSize: 0x330 }
  - { offset: 0x71E98, size: 0x8, addend: 0x0, symName: __ZNSt6vectorISt4pairIlS_INSt7__cxx119sub_matchIN9__gnu_cxx17__normal_iteratorIPKcNS1_12basic_stringIcSt11char_traitsIcESaIcEEEEEEESaISD_EEESaISG_EED1Ev, symObjAddr: 0x2EA0, symBinAddr: 0x1000074D0, symSize: 0x90 }
  - { offset: 0x7266C, size: 0x8, addend: 0x0, symName: __ZNSt8__detail8_ScannerIcE10_M_advanceEv, symObjAddr: 0x3F90, symBinAddr: 0x1000085C0, symSize: 0x50 }
  - { offset: 0x72697, size: 0x8, addend: 0x0, symName: __ZNSt8__detail8_ScannerIcE19_M_eat_escape_posixEv, symObjAddr: 0x3260, symBinAddr: 0x100007890, symSize: 0x170 }
  - { offset: 0x728C3, size: 0x8, addend: 0x0, symName: __ZNSt8__detail8_ScannerIcE18_M_eat_escape_ecmaEv, symObjAddr: 0x1AD0, symBinAddr: 0x100006100, symSize: 0x3D0 }
  - { offset: 0x73387, size: 0x8, addend: 0x0, symName: __ZNSt6vectorISt4pairIN9__gnu_cxx17__normal_iteratorIPKcNSt7__cxx1112basic_stringIcSt11char_traitsIcESaIcEEEEEiESaISC_EED1Ev, symObjAddr: 0x2E80, symBinAddr: 0x1000074B0, symSize: 0x20 }
  - { offset: 0x736CD, size: 0x8, addend: 0x0, symName: __ZNSt8__detail4_NFAINSt7__cxx1112regex_traitsIcEEE21_M_insert_subexpr_endEv, symObjAddr: 0x46F0, symBinAddr: 0x100008D20, symSize: 0x130 }
  - { offset: 0x73A53, size: 0x8, addend: 0x0, symName: __ZNSt8__detail9_CompilerINSt7__cxx1112regex_traitsIcEEE14_M_disjunctionEv, symObjAddr: 0x11940, symBinAddr: 0x100015F70, symSize: 0x1C0 }
  - { offset: 0x73E32, size: 0x8, addend: 0x0, symName: __ZNSt8__detail4_NFAINSt7__cxx1112regex_traitsIcEEE23_M_insert_subexpr_beginEv, symObjAddr: 0x4820, symBinAddr: 0x100008E50, symSize: 0x150 }
  - { offset: 0x742A0, size: 0x8, addend: 0x0, symName: __ZNSt8__detail8_ScannerIcEC1EPKcS3_NSt15regex_constants18syntax_option_typeESt6locale, symObjAddr: 0x3FE0, symBinAddr: 0x100008610, symSize: 0x1E0 }
  - { offset: 0x74AA9, size: 0x8, addend: 0x0, symName: __ZNSt8__detail9_ExecutorIN9__gnu_cxx17__normal_iteratorIPKcNSt7__cxx1112basic_stringIcSt11char_traitsIcESaIcEEEEESaINS5_9sub_matchISB_EEENS5_12regex_traitsIcEELb0EED1Ev, symObjAddr: 0x2D10, symBinAddr: 0x100007340, symSize: 0xD0 }
  - { offset: 0x75091, size: 0x8, addend: 0x0, symName: __ZNSt8__detail9_CompilerINSt7__cxx1112regex_traitsIcEEEC1EPKcS6_RKSt6localeNSt15regex_constants18syntax_option_typeE, symObjAddr: 0x11B00, symBinAddr: 0x100016130, symSize: 0x4B0 }
  - { offset: 0x77074, size: 0x8, addend: 0x0, symName: __ZNSt6vectorINSt7__cxx119sub_matchIN9__gnu_cxx17__normal_iteratorIPKcNS0_12basic_stringIcSt11char_traitsIcESaIcEEEEEEESaISC_EED1Ev, symObjAddr: 0x2410, symBinAddr: 0x100006A40, symSize: 0x20 }
  - { offset: 0x77172, size: 0x8, addend: 0x0, symName: __ZNSt6vectorINSt7__cxx119sub_matchIN9__gnu_cxx17__normal_iteratorIPKcNS0_12basic_stringIcSt11char_traitsIcESaIcEEEEEEESaISC_EED2Ev, symObjAddr: 0x23F0, symBinAddr: 0x100006A20, symSize: 0x20 }
  - { offset: 0x772A6, size: 0x8, addend: 0x0, symName: __ZNSt7__cxx1111basic_regexIcNS_12regex_traitsIcEEED1Ev, symObjAddr: 0x2360, symBinAddr: 0x100006990, symSize: 0x90 }
  - { offset: 0x776F2, size: 0x8, addend: 0x0, symName: __ZNSt16_Sp_counted_baseILN9__gnu_cxx12_Lock_policyE2EE24_M_release_last_use_coldEv, symObjAddr: 0x2290, symBinAddr: 0x1000068C0, symSize: 0x60 }
  - { offset: 0x77B83, size: 0x8, addend: 0x0, symName: __ZN3PPM6WriterclE6MatrixNSt7__cxx1112basic_stringIcSt11char_traitsIcESaIcEEE, symObjAddr: 0x26C0, symBinAddr: 0x100006CF0, symSize: 0x650 }
  - { offset: 0x78673, size: 0x8, addend: 0x0, symName: __ZN3PPM5errorENSt7__cxx1112basic_stringIcSt11char_traitsIcESaIcEEES5_, symObjAddr: 0x2090, symBinAddr: 0x1000066C0, symSize: 0xD0 }
  - { offset: 0x7886A, size: 0x8, addend: 0x0, symName: __ZN3PPM6ReaderclENSt7__cxx1112basic_stringIcSt11char_traitsIcESaIcEEE, symObjAddr: 0x129D0, symBinAddr: 0x100017000, symSize: 0x510 }
  - { offset: 0x78EF7, size: 0x8, addend: 0x0, symName: __ZN3PPM6Reader8get_dataEjj, symObjAddr: 0x1F60, symBinAddr: 0x100006590, symSize: 0x130 }
  - { offset: 0x791B0, size: 0x8, addend: 0x0, symName: __ZN3PPM6Reader13get_color_maxEv, symObjAddr: 0x12530, symBinAddr: 0x100016B60, symSize: 0x4A0 }
  - { offset: 0x7A801, size: 0x8, addend: 0x0, symName: __ZN3PPM6Reader14get_dimensionsEv, symObjAddr: 0x11FB0, symBinAddr: 0x1000165E0, symSize: 0x580 }
  - { offset: 0x7C4FC, size: 0x8, addend: 0x0, symName: __ZN3PPM6Reader4fillENSt7__cxx1112basic_stringIcSt11char_traitsIcESaIcEEE, symObjAddr: 0x2430, symBinAddr: 0x100006A60, symSize: 0x290 }
  - { offset: 0x7CB5A, size: 0x8, addend: 0x0, symName: __ZSt19__throw_regex_errorNSt15regex_constants10error_typeEPKc, symObjAddr: 0x14BAC, symBinAddr: 0x100018100, symSize: 0x6C }
  - { offset: 0x7CD64, size: 0x8, addend: 0x0, symName: __ZZNSt19_Sp_make_shared_tag5_S_tiEvE5__tag, symObjAddr: 0x151E8, symBinAddr: 0x10001A980, symSize: 0x0 }
  - { offset: 0x7D138, size: 0x8, addend: 0x0, symName: __ZNSt7__cxx119to_stringEj, symObjAddr: 0x1870, symBinAddr: 0x100005EA0, symSize: 0x260 }
  - { offset: 0x7D4F9, size: 0x8, addend: 0x0, symName: __ZNKSt5ctypeIcE8do_widenEc, symObjAddr: 0x0, symBinAddr: 0x100004630, symSize: 0x10 }
  - { offset: 0x7D528, size: 0x8, addend: 0x0, symName: __ZNKSt5ctypeIcE9do_narrowEcc, symObjAddr: 0x10, symBinAddr: 0x100004640, symSize: 0x10 }
  - { offset: 0x7D55B, size: 0x8, addend: 0x0, symName: __ZNKSt5ctypeIcE2isEmc.part.0, symObjAddr: 0x200, symBinAddr: 0x100004830, symSize: 0x50 }
  - { offset: 0x7D58D, size: 0x8, addend: 0x0, symName: __ZNKSt5ctypeIcE2isEmc.part.0, symObjAddr: 0x200, symBinAddr: 0x100004830, symSize: 0x50 }
  - { offset: 0x7D5D8, size: 0x8, addend: 0x0, symName: __ZNSt8__detail6_StateIcED1Ev.part.0, symObjAddr: 0x250, symBinAddr: 0x100004880, symSize: 0x30 }
  - { offset: 0x7D5FA, size: 0x8, addend: 0x0, symName: __ZNSt8__detail6_StateIcED1Ev.part.0, symObjAddr: 0x250, symBinAddr: 0x100004880, symSize: 0x30 }
  - { offset: 0x7D619, size: 0x8, addend: 0x0, symName: __ZNSt8__detail6_StateIcED1Ev.part.0, symObjAddr: 0x250, symBinAddr: 0x100004880, symSize: 0x30 }
  - { offset: 0x7D640, size: 0x8, addend: 0x0, symName: __ZNSt17_Function_handlerIFbcENSt8__detail11_AnyMatcherINSt7__cxx1112regex_traitsIcEELb0ELb0ELb1EEEE10_M_managerERSt9_Any_dataRKS8_St18_Manager_operation, symObjAddr: 0x280, symBinAddr: 0x1000048B0, symSize: 0x40 }
  - { offset: 0x7D73D, size: 0x8, addend: 0x0, symName: __ZNSt17_Function_handlerIFbcENSt8__detail11_AnyMatcherINSt7__cxx1112regex_traitsIcEELb0ELb1ELb0EEEE10_M_managerERSt9_Any_dataRKS8_St18_Manager_operation, symObjAddr: 0x2C0, symBinAddr: 0x1000048F0, symSize: 0x40 }
  - { offset: 0x7D83A, size: 0x8, addend: 0x0, symName: __ZNSt17_Function_handlerIFbcENSt8__detail11_AnyMatcherINSt7__cxx1112regex_traitsIcEELb0ELb1ELb1EEEE10_M_managerERSt9_Any_dataRKS8_St18_Manager_operation, symObjAddr: 0x300, symBinAddr: 0x100004930, symSize: 0x40 }
  - { offset: 0x7D937, size: 0x8, addend: 0x0, symName: __ZNSt17_Function_handlerIFbcENSt8__detail11_AnyMatcherINSt7__cxx1112regex_traitsIcEELb1ELb0ELb1EEEE10_M_managerERSt9_Any_dataRKS8_St18_Manager_operation, symObjAddr: 0x340, symBinAddr: 0x100004970, symSize: 0x40 }
  - { offset: 0x7DA34, size: 0x8, addend: 0x0, symName: __ZNSt17_Function_handlerIFbcENSt8__detail11_AnyMatcherINSt7__cxx1112regex_traitsIcEELb1ELb1ELb0EEEE10_M_managerERSt9_Any_dataRKS8_St18_Manager_operation, symObjAddr: 0x380, symBinAddr: 0x1000049B0, symSize: 0x40 }
  - { offset: 0x7DB31, size: 0x8, addend: 0x0, symName: __ZNSt17_Function_handlerIFbcENSt8__detail11_AnyMatcherINSt7__cxx1112regex_traitsIcEELb1ELb1ELb1EEEE10_M_managerERSt9_Any_dataRKS8_St18_Manager_operation, symObjAddr: 0x3C0, symBinAddr: 0x1000049F0, symSize: 0x40 }
  - { offset: 0x7DC2E, size: 0x8, addend: 0x0, symName: __ZNSt17_Function_handlerIFbcENSt8__detail12_CharMatcherINSt7__cxx1112regex_traitsIcEELb0ELb0EEEE10_M_managerERSt9_Any_dataRKS8_St18_Manager_operation, symObjAddr: 0x400, symBinAddr: 0x100004A30, symSize: 0x40 }
  - { offset: 0x7DDBD, size: 0x8, addend: 0x0, symName: __ZNSt17_Function_handlerIFbcENSt8__detail12_CharMatcherINSt7__cxx1112regex_traitsIcEELb0ELb1EEEE10_M_managerERSt9_Any_dataRKS8_St18_Manager_operation, symObjAddr: 0x440, symBinAddr: 0x100004A70, symSize: 0x40 }
  - { offset: 0x7DF4E, size: 0x8, addend: 0x0, symName: __ZNSt17_Function_handlerIFbcENSt8__detail12_CharMatcherINSt7__cxx1112regex_traitsIcEELb1ELb0EEEE10_M_managerERSt9_Any_dataRKS8_St18_Manager_operation, symObjAddr: 0x480, symBinAddr: 0x100004AB0, symSize: 0x40 }
  - { offset: 0x7E0DF, size: 0x8, addend: 0x0, symName: __ZNSt17_Function_handlerIFbcENSt8__detail12_CharMatcherINSt7__cxx1112regex_traitsIcEELb1ELb1EEEE10_M_managerERSt9_Any_dataRKS8_St18_Manager_operation, symObjAddr: 0x4C0, symBinAddr: 0x100004AF0, symSize: 0x40 }
  - { offset: 0x7E26C, size: 0x8, addend: 0x0, symName: __ZSt13__adjust_heapIN9__gnu_cxx17__normal_iteratorIPcSt6vectorIcSaIcEEEElcNS0_5__ops15_Iter_less_iterEEvT_T0_SA_T1_T2_.isra.0, symObjAddr: 0x510, symBinAddr: 0x100004B40, symSize: 0x100 }
  - { offset: 0x7E432, size: 0x8, addend: 0x0, symName: __ZNSt8_Rb_treeIlSt4pairIKllESt10_Select1stIS2_ESt4lessIlESaIS2_EE24_M_get_insert_unique_posERS1_.isra.0, symObjAddr: 0x730, symBinAddr: 0x100004D60, symSize: 0xA0 }
  - { offset: 0x7E58E, size: 0x8, addend: 0x0, symName: __ZNSt7__cxx1112basic_stringIcSt11char_traitsIcESaIcEEaSEOS4_.isra.0, symObjAddr: 0x7D0, symBinAddr: 0x100004E00, symSize: 0x100 }
  - { offset: 0x7E9CA, size: 0x8, addend: 0x0, symName: __ZSt16__introsort_loopIN9__gnu_cxx17__normal_iteratorIPcSt6vectorIcSaIcEEEElNS0_5__ops15_Iter_less_iterEEvT_S9_T0_T1_.isra.0, symObjAddr: 0x8D0, symBinAddr: 0x100004F00, symSize: 0x1B0 }
  - { offset: 0x7EA06, size: 0x8, addend: 0x0, symName: __ZSt16__introsort_loopIN9__gnu_cxx17__normal_iteratorIPcSt6vectorIcSaIcEEEElNS0_5__ops15_Iter_less_iterEEvT_S9_T0_T1_.isra.0, symObjAddr: 0x8D0, symBinAddr: 0x100004F00, symSize: 0x1B0 }
  - { offset: 0x7EF4F, size: 0x8, addend: 0x0, symName: __ZNSt6vectorIcSaIcEE8_M_eraseEN9__gnu_cxx17__normal_iteratorIPcS1_EES5_.isra.0, symObjAddr: 0xA80, symBinAddr: 0x1000050B0, symSize: 0x90 }
  - { offset: 0x7F1B8, size: 0x8, addend: 0x0, symName: __ZSt8__uniqueIN9__gnu_cxx17__normal_iteratorIPcSt6vectorIcSaIcEEEENS0_5__ops19_Iter_equal_to_iterEET_S9_S9_T0_.isra.0, symObjAddr: 0xB10, symBinAddr: 0x100005140, symSize: 0xA0 }
  - { offset: 0x7F1F2, size: 0x8, addend: 0x0, symName: __ZSt8__uniqueIN9__gnu_cxx17__normal_iteratorIPcSt6vectorIcSaIcEEEENS0_5__ops19_Iter_equal_to_iterEET_S9_S9_T0_.isra.0, symObjAddr: 0xB10, symBinAddr: 0x100005140, symSize: 0xA0 }
  - { offset: 0x7F2CF, size: 0x8, addend: 0x0, symName: __ZNSt8_Rb_treeIlSt4pairIKllESt10_Select1stIS2_ESt4lessIlESaIS2_EE22_M_emplace_hint_uniqueIJRKSt21piecewise_construct_tSt5tupleIJRS1_EESD_IJEEEEESt17_Rb_tree_iteratorIS2_ESt23_Rb_tree_const_iteratorIS2_EDpOT_.isra.0, symObjAddr: 0xC20, symBinAddr: 0x100005250, symSize: 0x1C0 }
  - { offset: 0x7F7B3, size: 0x8, addend: 0x0, symName: __ZNSt6vectorINSt7__cxx119sub_matchIN9__gnu_cxx17__normal_iteratorIPKcNS0_12basic_stringIcSt11char_traitsIcESaIcEEEEEEESaISC_EEaSERKSE_.isra.0, symObjAddr: 0xDE0, symBinAddr: 0x100005410, symSize: 0x1B0 }
  - { offset: 0x7FECC, size: 0x8, addend: 0x0, symName: __ZNSt7__cxx1112basic_stringIcSt11char_traitsIcESaIcEE12_M_constructIPcEEvT_S7_St20forward_iterator_tag.isra.0, symObjAddr: 0xF90, symBinAddr: 0x1000055C0, symSize: 0xC0 }
  - { offset: 0x80181, size: 0x8, addend: 0x0, symName: __ZNSt7__cxx1112basic_stringIcSt11char_traitsIcESaIcEEC1IS3_EEPKcRKS3_.isra.0, symObjAddr: 0x14A2C, symBinAddr: 0x100017F80, symSize: 0xAC }
  - { offset: 0x804A7, size: 0x8, addend: 0x0, symName: __ZNKSt8__detail20_RegexTranslatorBaseINSt7__cxx1112regex_traitsIcEELb1ELb1EE12_M_translateEc.isra.0, symObjAddr: 0x1050, symBinAddr: 0x100005680, symSize: 0x50 }
  - { offset: 0x805AE, size: 0x8, addend: 0x0, symName: __ZNKSt8__detail20_RegexTranslatorBaseINSt7__cxx1112regex_traitsIcEELb1ELb0EE12_M_translateEc.isra.0, symObjAddr: 0x10A0, symBinAddr: 0x1000056D0, symSize: 0x50 }
  - { offset: 0x806B5, size: 0x8, addend: 0x0, symName: __ZNSt8_Rb_treeIlSt4pairIKllESt10_Select1stIS2_ESt4lessIlESaIS2_EE8_M_eraseEPSt13_Rb_tree_nodeIS2_E.isra.0, symObjAddr: 0x11D0, symBinAddr: 0x100005800, symSize: 0x140 }
  - { offset: 0x81204, size: 0x8, addend: 0x0, symName: __ZNKSt7__cxx1112regex_traitsIcE7isctypeEcNS1_10_RegexMaskE.isra.0, symObjAddr: 0x1570, symBinAddr: 0x100005BA0, symSize: 0x100 }
  - { offset: 0x813BF, size: 0x8, addend: 0x0, symName: __ZStplIcSt11char_traitsIcESaIcEENSt7__cxx1112basic_stringIT_T0_T1_EEPKS5_RKS8_.isra.0, symObjAddr: 0x14AD8, symBinAddr: 0x10001802C, symSize: 0xD4 }
  - { offset: 0x81639, size: 0x8, addend: 0x0, symName: __ZN3PPM6Reader16get_magic_numberB5cxx11Ev, symObjAddr: 0x1EA0, symBinAddr: 0x1000064D0, symSize: 0xC0 }
  - { offset: 0x81803, size: 0x8, addend: 0x0, symName: __ZN9__gnu_cxx6__stoaImmcJiEEET0_PFT_PKT1_PPS3_DpT2_EPKcS5_PmS9_, symObjAddr: 0x21A0, symBinAddr: 0x1000067D0, symSize: 0xF0 }
  - { offset: 0x818B8, size: 0x8, addend: 0x0, symName: __ZNSt16_Sp_counted_baseILN9__gnu_cxx12_Lock_policyE2EE10_M_releaseEv, symObjAddr: 0x22F0, symBinAddr: 0x100006920, symSize: 0x70 }
  - { offset: 0x819DF, size: 0x8, addend: 0x0, symName: __ZNSt8__detail9_CompilerINSt7__cxx1112regex_traitsIcEEE6_M_popEv, symObjAddr: 0x2DE0, symBinAddr: 0x100007410, symSize: 0xA0 }
  - { offset: 0x81BF2, size: 0x8, addend: 0x0, symName: __ZNSt8__detail4_NFAINSt7__cxx1112regex_traitsIcEEE15_M_insert_stateENS_6_StateIcEE, symObjAddr: 0x4460, symBinAddr: 0x100008A90, symSize: 0xD0 }
  - { offset: 0x81E59, size: 0x8, addend: 0x0, symName: __ZNSt8__detail4_NFAINSt7__cxx1112regex_traitsIcEEE16_M_insert_acceptEv, symObjAddr: 0x4530, symBinAddr: 0x100008B60, symSize: 0xE0 }
  - { offset: 0x820BE, size: 0x8, addend: 0x0, symName: __ZNSt8__detail4_NFAINSt7__cxx1112regex_traitsIcEEE15_M_insert_dummyEv, symObjAddr: 0x4610, symBinAddr: 0x100008C40, symSize: 0xE0 }
  - { offset: 0x82319, size: 0x8, addend: 0x0, symName: __ZNSt6vectorISt4pairIlS_INSt7__cxx119sub_matchIN9__gnu_cxx17__normal_iteratorIPKcNS1_12basic_stringIcSt11char_traitsIcESaIcEEEEEEESaISD_EEESaISG_EE12emplace_backIJRlRKSF_EEERSG_DpOT_.isra.0, symObjAddr: 0x7720, symBinAddr: 0x10000BD50, symSize: 0x120 }
  - { offset: 0x8269E, size: 0x8, addend: 0x0, symName: __ZNKSt7__cxx1112regex_traitsIcE5valueEci.isra.0, symObjAddr: 0x7840, symBinAddr: 0x10000BE70, symSize: 0x380 }
  - { offset: 0x8327D, size: 0x8, addend: 0x0, symName: __ZNSt5dequeINSt8__detail9_StateSeqINSt7__cxx1112regex_traitsIcEEEESaIS5_EE9push_backERKS5_, symObjAddr: 0x8F60, symBinAddr: 0x10000D590, symSize: 0x40 }
  - { offset: 0x83314, size: 0x8, addend: 0x0, symName: __ZNSt5dequeINSt8__detail9_StateSeqINSt7__cxx1112regex_traitsIcEEEESaIS5_EE12emplace_backIJS5_EEERS5_DpOT_.isra.0, symObjAddr: 0x9600, symBinAddr: 0x10000DC30, symSize: 0x130 }
  - { offset: 0x8356D, size: 0x8, addend: 0x0, symName: __ZNSt8__detail9_ExecutorIN9__gnu_cxx17__normal_iteratorIPKcNSt7__cxx1112basic_stringIcSt11char_traitsIcESaIcEEEEESaINS5_9sub_matchISB_EEENS5_12regex_traitsIcEELb0EE16_M_main_dispatchENSH_11_Match_modeESt17integral_constantIbLb0EE.constprop.0, symObjAddr: 0xA940, symBinAddr: 0x10000EF70, symSize: 0x5F0 }
  - { offset: 0x84915, size: 0x8, addend: 0x0, symName: __ZNSt8__detail9_ExecutorIN9__gnu_cxx17__normal_iteratorIPKcNSt7__cxx1112basic_stringIcSt11char_traitsIcESaIcEEEEESaINS5_9sub_matchISB_EEENS5_12regex_traitsIcEELb0EE6_M_dfsENSH_11_Match_modeEl, symObjAddr: 0xB290, symBinAddr: 0x10000F8C0, symSize: 0x360 }
  - { offset: 0x85005, size: 0x8, addend: 0x0, symName: __ZNSt8__detail9_ExecutorIN9__gnu_cxx17__normal_iteratorIPKcNSt7__cxx1112basic_stringIcSt11char_traitsIcESaIcEEEEESaINS5_9sub_matchISB_EEENS5_12regex_traitsIcEELb0EE23_M_handle_word_boundaryENSH_11_Match_modeEl, symObjAddr: 0xB970, symBinAddr: 0x10000FFA0, symSize: 0x170 }
  - { offset: 0x8526E, size: 0x8, addend: 0x0, symName: __ZNSt8__detail17__regex_algo_implIN9__gnu_cxx17__normal_iteratorIPKcNSt7__cxx1112basic_stringIcSt11char_traitsIcESaIcEEEEESaINS5_9sub_matchISB_EEEcNS5_12regex_traitsIcEEEEbT_SH_RNS5_13match_resultsISH_T0_EERKNS5_11basic_regexIT1_T2_EENSt15regex_constants15match_flag_typeENS_20_RegexExecutorPolicyEb.isra.0, symObjAddr: 0xC6B0, symBinAddr: 0x100010CE0, symSize: 0x6F0 }
  - { offset: 0x8705B, size: 0x8, addend: 0x0, symName: __ZNSt6vectorIcSaIcEE12emplace_backIJcEEERcDpOT_.isra.0, symObjAddr: 0xD6C0, symBinAddr: 0x100011CF0, symSize: 0x40 }
  - { offset: 0x870FD, size: 0x8, addend: 0x0, symName: __ZZNSt8__detail9_CompilerINSt7__cxx1112regex_traitsIcEEE18_M_expression_termILb1ELb0EEEbRNS4_13_BracketStateERNS_15_BracketMatcherIS3_XT_EXT0_EEEENKUlvE_clEv, symObjAddr: 0xD700, symBinAddr: 0x100011D30, symSize: 0xB0 }
  - { offset: 0x872DA, size: 0x8, addend: 0x0, symName: __ZZNSt8__detail9_CompilerINSt7__cxx1112regex_traitsIcEEE18_M_expression_termILb1ELb0EEEbRNS4_13_BracketStateERNS_15_BracketMatcherIS3_XT_EXT0_EEEENKUlcE_clEc, symObjAddr: 0xD7B0, symBinAddr: 0x100011DE0, symSize: 0xC0 }
  - { offset: 0x874C5, size: 0x8, addend: 0x0, symName: __ZZNSt8__detail9_CompilerINSt7__cxx1112regex_traitsIcEEE18_M_expression_termILb1ELb1EEEbRNS4_13_BracketStateERNS_15_BracketMatcherIS3_XT_EXT0_EEEENKUlcE_clEc, symObjAddr: 0xD870, symBinAddr: 0x100011EA0, symSize: 0xC0 }
  - { offset: 0x876B0, size: 0x8, addend: 0x0, symName: __ZNSt8__detail9_CompilerINSt7__cxx1112regex_traitsIcEEE14_M_alternativeEv, symObjAddr: 0x116F0, symBinAddr: 0x100015D20, symSize: 0x250 }
  - { offset: 0x89737, size: 0x8, addend: 0x0, symName: __ZStL8__ioinit, symObjAddr: 0x209C5, symBinAddr: 0x100024443, symSize: 0x0 }
  - { offset: 0x89927, size: 0x8, addend: 0x0, symName: __ZN6Filter4blurE6Matrixi, symObjAddr: 0x90, symBinAddr: 0x1000178C0, symSize: 0x39C }
  - { offset: 0x89DB2, size: 0x8, addend: 0x0, symName: __ZN6Filter5Gauss11get_weightsEiPd, symObjAddr: 0x0, symBinAddr: 0x100017830, symSize: 0x90 }
...
